
serial_plot_test.elf:     file format elf32-littleriscv


Disassembly of section .text:

10000000 <_ftext>:
10000000:	0b00006f          	j	100000b0 <crt_init>
10000004:	00000013          	nop
10000008:	00000013          	nop
1000000c:	00000013          	nop
10000010:	00000013          	nop
10000014:	00000013          	nop
10000018:	00000013          	nop
1000001c:	00000013          	nop

10000020 <trap_entry>:
10000020:	fe112e23          	sw	ra,-4(sp)
10000024:	fe512c23          	sw	t0,-8(sp)
10000028:	fe612a23          	sw	t1,-12(sp)
1000002c:	fe712823          	sw	t2,-16(sp)
10000030:	fea12623          	sw	a0,-20(sp)
10000034:	feb12423          	sw	a1,-24(sp)
10000038:	fec12223          	sw	a2,-28(sp)
1000003c:	fed12023          	sw	a3,-32(sp)
10000040:	fce12e23          	sw	a4,-36(sp)
10000044:	fcf12c23          	sw	a5,-40(sp)
10000048:	fd012a23          	sw	a6,-44(sp)
1000004c:	fd112823          	sw	a7,-48(sp)
10000050:	fdc12623          	sw	t3,-52(sp)
10000054:	fdd12423          	sw	t4,-56(sp)
10000058:	fde12223          	sw	t5,-60(sp)
1000005c:	fdf12023          	sw	t6,-64(sp)
10000060:	fc010113          	add	sp,sp,-64
10000064:	110000ef          	jal	10000174 <isr>
10000068:	03c12083          	lw	ra,60(sp)
1000006c:	03812283          	lw	t0,56(sp)
10000070:	03412303          	lw	t1,52(sp)
10000074:	03012383          	lw	t2,48(sp)
10000078:	02c12503          	lw	a0,44(sp)
1000007c:	02812583          	lw	a1,40(sp)
10000080:	02412603          	lw	a2,36(sp)
10000084:	02012683          	lw	a3,32(sp)
10000088:	01c12703          	lw	a4,28(sp)
1000008c:	01812783          	lw	a5,24(sp)
10000090:	01412803          	lw	a6,20(sp)
10000094:	01012883          	lw	a7,16(sp)
10000098:	00c12e03          	lw	t3,12(sp)
1000009c:	00812e83          	lw	t4,8(sp)
100000a0:	00412f03          	lw	t5,4(sp)
100000a4:	00012f83          	lw	t6,0(sp)
100000a8:	04010113          	add	sp,sp,64
100000ac:	30200073          	mret

100000b0 <crt_init>:
100000b0:	40000113          	li	sp,1024
100000b4:	00000517          	auipc	a0,0x0
100000b8:	f6c50513          	add	a0,a0,-148 # 10000020 <trap_entry>
100000bc:	30551073          	csrw	mtvec,a0

100000c0 <data_init>:
100000c0:	00000513          	li	a0,0
100000c4:	00000593          	li	a1,0
100000c8:	00001617          	auipc	a2,0x1
100000cc:	53860613          	add	a2,a2,1336 # 10001600 <_erodata>

100000d0 <data_loop>:
100000d0:	00b50c63          	beq	a0,a1,100000e8 <bss_init>
100000d4:	00062683          	lw	a3,0(a2)
100000d8:	00d52023          	sw	a3,0(a0)
100000dc:	00450513          	add	a0,a0,4
100000e0:	00460613          	add	a2,a2,4
100000e4:	fedff06f          	j	100000d0 <data_loop>

100000e8 <bss_init>:
100000e8:	00000513          	li	a0,0
100000ec:	01000593          	li	a1,16

100000f0 <bss_loop>:
100000f0:	00b50863          	beq	a0,a1,10000100 <bss_done>
100000f4:	00052023          	sw	zero,0(a0)
100000f8:	00450513          	add	a0,a0,4
100000fc:	ff5ff06f          	j	100000f0 <bss_loop>

10000100 <bss_done>:
10000100:	00001537          	lui	a0,0x1
10000104:	88050513          	add	a0,a0,-1920 # 880 <_fstack+0x480>
10000108:	30451073          	csrw	mie,a0
1000010c:	641000ef          	jal	10000f4c <main>

10000110 <infinit_loop>:
10000110:	0000006f          	j	10000110 <infinit_loop>

10000114 <flush_cpu_icache>:
10000114:	ff010113          	add	sp,sp,-16
10000118:	00812623          	sw	s0,12(sp)
1000011c:	01010413          	add	s0,sp,16
10000120:	00000013          	nop
10000124:	00c12403          	lw	s0,12(sp)
10000128:	01010113          	add	sp,sp,16
1000012c:	00008067          	ret

10000130 <flush_cpu_dcache>:
10000130:	ff010113          	add	sp,sp,-16
10000134:	00812623          	sw	s0,12(sp)
10000138:	01010413          	add	s0,sp,16
1000013c:	00000013          	nop
10000140:	00c12403          	lw	s0,12(sp)
10000144:	01010113          	add	sp,sp,16
10000148:	00008067          	ret

1000014c <irq_setmask>:
1000014c:	fe010113          	add	sp,sp,-32
10000150:	00812e23          	sw	s0,28(sp)
10000154:	02010413          	add	s0,sp,32
10000158:	fea42623          	sw	a0,-20(s0)
1000015c:	fec42783          	lw	a5,-20(s0)
10000160:	bc079073          	csrw	0xbc0,a5
10000164:	00000013          	nop
10000168:	01c12403          	lw	s0,28(sp)
1000016c:	02010113          	add	sp,sp,32
10000170:	00008067          	ret

10000174 <isr>:
10000174:	ff010113          	add	sp,sp,-16
10000178:	00112623          	sw	ra,12(sp)
1000017c:	00812423          	sw	s0,8(sp)
10000180:	01010413          	add	s0,sp,16
10000184:	00000513          	li	a0,0
10000188:	fc5ff0ef          	jal	1000014c <irq_setmask>
1000018c:	f00057b7          	lui	a5,0xf0005
10000190:	01c78793          	add	a5,a5,28 # f000501c <_erodata+0xe0003a1c>
10000194:	0007a023          	sw	zero,0(a5)
10000198:	f00057b7          	lui	a5,0xf0005
1000019c:	00c78793          	add	a5,a5,12 # f000500c <_erodata+0xe0003a0c>
100001a0:	00100713          	li	a4,1
100001a4:	00e7a023          	sw	a4,0(a5)
100001a8:	f00057b7          	lui	a5,0xf0005
100001ac:	01078793          	add	a5,a5,16 # f0005010 <_erodata+0xe0003a10>
100001b0:	0007a783          	lw	a5,0(a5)
100001b4:	00079863          	bnez	a5,100001c4 <isr+0x50>
100001b8:	00100713          	li	a4,1
100001bc:	00e01023          	sh	a4,0(zero) # 0 <flag>
100001c0:	0180006f          	j	100001d8 <isr+0x64>
100001c4:	f00057b7          	lui	a5,0xf0005
100001c8:	01c78793          	add	a5,a5,28 # f000501c <_erodata+0xe0003a1c>
100001cc:	00100713          	li	a4,1
100001d0:	00e7a023          	sw	a4,0(a5)
100001d4:	00000013          	nop
100001d8:	00c12083          	lw	ra,12(sp)
100001dc:	00812403          	lw	s0,8(sp)
100001e0:	01010113          	add	sp,sp,16
100001e4:	00008067          	ret

100001e8 <flush_cpu_icache>:
100001e8:	ff010113          	add	sp,sp,-16
100001ec:	00812623          	sw	s0,12(sp)
100001f0:	01010413          	add	s0,sp,16
100001f4:	00000013          	nop
100001f8:	00c12403          	lw	s0,12(sp)
100001fc:	01010113          	add	sp,sp,16
10000200:	00008067          	ret

10000204 <flush_cpu_dcache>:
10000204:	ff010113          	add	sp,sp,-16
10000208:	00812623          	sw	s0,12(sp)
1000020c:	01010413          	add	s0,sp,16
10000210:	00000013          	nop
10000214:	00c12403          	lw	s0,12(sp)
10000218:	01010113          	add	sp,sp,16
1000021c:	00008067          	ret

10000220 <putchar>:
10000220:	fe010113          	add	sp,sp,-32
10000224:	00112e23          	sw	ra,28(sp)
10000228:	00812c23          	sw	s0,24(sp)
1000022c:	02010413          	add	s0,sp,32
10000230:	00050793          	mv	a5,a0
10000234:	fef407a3          	sb	a5,-17(s0)
10000238:	fef44703          	lbu	a4,-17(s0)
1000023c:	00a00793          	li	a5,10
10000240:	00f71663          	bne	a4,a5,1000024c <putchar+0x2c>
10000244:	00d00513          	li	a0,13
10000248:	fd9ff0ef          	jal	10000220 <putchar>
1000024c:	00000013          	nop
10000250:	f00067b7          	lui	a5,0xf0006
10000254:	80478793          	add	a5,a5,-2044 # f0005804 <_erodata+0xe0004204>
10000258:	0007a703          	lw	a4,0(a5)
1000025c:	00100793          	li	a5,1
10000260:	fef708e3          	beq	a4,a5,10000250 <putchar+0x30>
10000264:	f00067b7          	lui	a5,0xf0006
10000268:	80078793          	add	a5,a5,-2048 # f0005800 <_erodata+0xe0004200>
1000026c:	fef44703          	lbu	a4,-17(s0)
10000270:	00e7a023          	sw	a4,0(a5)
10000274:	00000013          	nop
10000278:	01c12083          	lw	ra,28(sp)
1000027c:	01812403          	lw	s0,24(sp)
10000280:	02010113          	add	sp,sp,32
10000284:	00008067          	ret

10000288 <print>:
10000288:	fe010113          	add	sp,sp,-32
1000028c:	00112e23          	sw	ra,28(sp)
10000290:	00812c23          	sw	s0,24(sp)
10000294:	02010413          	add	s0,sp,32
10000298:	fea42623          	sw	a0,-20(s0)
1000029c:	01c0006f          	j	100002b8 <print+0x30>
100002a0:	fec42783          	lw	a5,-20(s0)
100002a4:	00178713          	add	a4,a5,1
100002a8:	fee42623          	sw	a4,-20(s0)
100002ac:	0007c783          	lbu	a5,0(a5)
100002b0:	00078513          	mv	a0,a5
100002b4:	f6dff0ef          	jal	10000220 <putchar>
100002b8:	fec42783          	lw	a5,-20(s0)
100002bc:	0007c783          	lbu	a5,0(a5)
100002c0:	fe0790e3          	bnez	a5,100002a0 <print+0x18>
100002c4:	00000013          	nop
100002c8:	00000013          	nop
100002cc:	01c12083          	lw	ra,28(sp)
100002d0:	01812403          	lw	s0,24(sp)
100002d4:	02010113          	add	sp,sp,32
100002d8:	00008067          	ret

100002dc <print_hex>:
100002dc:	fd010113          	add	sp,sp,-48
100002e0:	02112623          	sw	ra,44(sp)
100002e4:	02812423          	sw	s0,40(sp)
100002e8:	03010413          	add	s0,sp,48
100002ec:	fca42e23          	sw	a0,-36(s0)
100002f0:	fcb42c23          	sw	a1,-40(s0)
100002f4:	fd842783          	lw	a5,-40(s0)
100002f8:	fff78793          	add	a5,a5,-1
100002fc:	fef42623          	sw	a5,-20(s0)
10000300:	0440006f          	j	10000344 <print_hex+0x68>
10000304:	fec42783          	lw	a5,-20(s0)
10000308:	00279793          	sll	a5,a5,0x2
1000030c:	fdc42703          	lw	a4,-36(s0)
10000310:	00f757b3          	srl	a5,a4,a5
10000314:	00f7f793          	and	a5,a5,15
10000318:	10001737          	lui	a4,0x10001
1000031c:	50070713          	add	a4,a4,1280 # 10001500 <_etext>
10000320:	00f707b3          	add	a5,a4,a5
10000324:	0007c783          	lbu	a5,0(a5)
10000328:	fef405a3          	sb	a5,-21(s0)
1000032c:	feb44783          	lbu	a5,-21(s0)
10000330:	00078513          	mv	a0,a5
10000334:	eedff0ef          	jal	10000220 <putchar>
10000338:	fec42783          	lw	a5,-20(s0)
1000033c:	fff78793          	add	a5,a5,-1
10000340:	fef42623          	sw	a5,-20(s0)
10000344:	fec42783          	lw	a5,-20(s0)
10000348:	fa07dee3          	bgez	a5,10000304 <print_hex+0x28>
1000034c:	00000013          	nop
10000350:	00000013          	nop
10000354:	02c12083          	lw	ra,44(sp)
10000358:	02812403          	lw	s0,40(sp)
1000035c:	03010113          	add	sp,sp,48
10000360:	00008067          	ret

10000364 <print_dec>:
10000364:	fe010113          	add	sp,sp,-32
10000368:	00112e23          	sw	ra,28(sp)
1000036c:	00812c23          	sw	s0,24(sp)
10000370:	02010413          	add	s0,sp,32
10000374:	fea42623          	sw	a0,-20(s0)
10000378:	fec42703          	lw	a4,-20(s0)
1000037c:	7cf00793          	li	a5,1999
10000380:	00e7fa63          	bgeu	a5,a4,10000394 <print_dec+0x30>
10000384:	100017b7          	lui	a5,0x10001
10000388:	51478513          	add	a0,a5,1300 # 10001514 <_etext+0x14>
1000038c:	efdff0ef          	jal	10000288 <print>
10000390:	4100006f          	j	100007a0 <print_dec+0x43c>
10000394:	fec42703          	lw	a4,-20(s0)
10000398:	3e700793          	li	a5,999
1000039c:	00e7fe63          	bgeu	a5,a4,100003b8 <print_dec+0x54>
100003a0:	03100513          	li	a0,49
100003a4:	e7dff0ef          	jal	10000220 <putchar>
100003a8:	fec42783          	lw	a5,-20(s0)
100003ac:	c1878793          	add	a5,a5,-1000
100003b0:	fef42623          	sw	a5,-20(s0)
100003b4:	00c0006f          	j	100003c0 <print_dec+0x5c>
100003b8:	02000513          	li	a0,32
100003bc:	e65ff0ef          	jal	10000220 <putchar>
100003c0:	fec42703          	lw	a4,-20(s0)
100003c4:	38300793          	li	a5,899
100003c8:	00e7fe63          	bgeu	a5,a4,100003e4 <print_dec+0x80>
100003cc:	03900513          	li	a0,57
100003d0:	e51ff0ef          	jal	10000220 <putchar>
100003d4:	fec42783          	lw	a5,-20(s0)
100003d8:	c7c78793          	add	a5,a5,-900
100003dc:	fef42623          	sw	a5,-20(s0)
100003e0:	12c0006f          	j	1000050c <print_dec+0x1a8>
100003e4:	fec42703          	lw	a4,-20(s0)
100003e8:	31f00793          	li	a5,799
100003ec:	00e7fe63          	bgeu	a5,a4,10000408 <print_dec+0xa4>
100003f0:	03800513          	li	a0,56
100003f4:	e2dff0ef          	jal	10000220 <putchar>
100003f8:	fec42783          	lw	a5,-20(s0)
100003fc:	ce078793          	add	a5,a5,-800
10000400:	fef42623          	sw	a5,-20(s0)
10000404:	1080006f          	j	1000050c <print_dec+0x1a8>
10000408:	fec42703          	lw	a4,-20(s0)
1000040c:	2bb00793          	li	a5,699
10000410:	00e7fe63          	bgeu	a5,a4,1000042c <print_dec+0xc8>
10000414:	03700513          	li	a0,55
10000418:	e09ff0ef          	jal	10000220 <putchar>
1000041c:	fec42783          	lw	a5,-20(s0)
10000420:	d4478793          	add	a5,a5,-700
10000424:	fef42623          	sw	a5,-20(s0)
10000428:	0e40006f          	j	1000050c <print_dec+0x1a8>
1000042c:	fec42703          	lw	a4,-20(s0)
10000430:	25700793          	li	a5,599
10000434:	00e7fe63          	bgeu	a5,a4,10000450 <print_dec+0xec>
10000438:	03600513          	li	a0,54
1000043c:	de5ff0ef          	jal	10000220 <putchar>
10000440:	fec42783          	lw	a5,-20(s0)
10000444:	da878793          	add	a5,a5,-600
10000448:	fef42623          	sw	a5,-20(s0)
1000044c:	0c00006f          	j	1000050c <print_dec+0x1a8>
10000450:	fec42703          	lw	a4,-20(s0)
10000454:	1f300793          	li	a5,499
10000458:	00e7fe63          	bgeu	a5,a4,10000474 <print_dec+0x110>
1000045c:	03500513          	li	a0,53
10000460:	dc1ff0ef          	jal	10000220 <putchar>
10000464:	fec42783          	lw	a5,-20(s0)
10000468:	e0c78793          	add	a5,a5,-500
1000046c:	fef42623          	sw	a5,-20(s0)
10000470:	09c0006f          	j	1000050c <print_dec+0x1a8>
10000474:	fec42703          	lw	a4,-20(s0)
10000478:	18f00793          	li	a5,399
1000047c:	00e7fe63          	bgeu	a5,a4,10000498 <print_dec+0x134>
10000480:	03400513          	li	a0,52
10000484:	d9dff0ef          	jal	10000220 <putchar>
10000488:	fec42783          	lw	a5,-20(s0)
1000048c:	e7078793          	add	a5,a5,-400
10000490:	fef42623          	sw	a5,-20(s0)
10000494:	0780006f          	j	1000050c <print_dec+0x1a8>
10000498:	fec42703          	lw	a4,-20(s0)
1000049c:	12b00793          	li	a5,299
100004a0:	00e7fe63          	bgeu	a5,a4,100004bc <print_dec+0x158>
100004a4:	03300513          	li	a0,51
100004a8:	d79ff0ef          	jal	10000220 <putchar>
100004ac:	fec42783          	lw	a5,-20(s0)
100004b0:	ed478793          	add	a5,a5,-300
100004b4:	fef42623          	sw	a5,-20(s0)
100004b8:	0540006f          	j	1000050c <print_dec+0x1a8>
100004bc:	fec42703          	lw	a4,-20(s0)
100004c0:	0c700793          	li	a5,199
100004c4:	00e7fe63          	bgeu	a5,a4,100004e0 <print_dec+0x17c>
100004c8:	03200513          	li	a0,50
100004cc:	d55ff0ef          	jal	10000220 <putchar>
100004d0:	fec42783          	lw	a5,-20(s0)
100004d4:	f3878793          	add	a5,a5,-200
100004d8:	fef42623          	sw	a5,-20(s0)
100004dc:	0300006f          	j	1000050c <print_dec+0x1a8>
100004e0:	fec42703          	lw	a4,-20(s0)
100004e4:	06300793          	li	a5,99
100004e8:	00e7fe63          	bgeu	a5,a4,10000504 <print_dec+0x1a0>
100004ec:	03100513          	li	a0,49
100004f0:	d31ff0ef          	jal	10000220 <putchar>
100004f4:	fec42783          	lw	a5,-20(s0)
100004f8:	f9c78793          	add	a5,a5,-100
100004fc:	fef42623          	sw	a5,-20(s0)
10000500:	00c0006f          	j	1000050c <print_dec+0x1a8>
10000504:	03000513          	li	a0,48
10000508:	d19ff0ef          	jal	10000220 <putchar>
1000050c:	fec42703          	lw	a4,-20(s0)
10000510:	05900793          	li	a5,89
10000514:	00e7fe63          	bgeu	a5,a4,10000530 <print_dec+0x1cc>
10000518:	03900513          	li	a0,57
1000051c:	d05ff0ef          	jal	10000220 <putchar>
10000520:	fec42783          	lw	a5,-20(s0)
10000524:	fa678793          	add	a5,a5,-90
10000528:	fef42623          	sw	a5,-20(s0)
1000052c:	12c0006f          	j	10000658 <print_dec+0x2f4>
10000530:	fec42703          	lw	a4,-20(s0)
10000534:	04f00793          	li	a5,79
10000538:	00e7fe63          	bgeu	a5,a4,10000554 <print_dec+0x1f0>
1000053c:	03800513          	li	a0,56
10000540:	ce1ff0ef          	jal	10000220 <putchar>
10000544:	fec42783          	lw	a5,-20(s0)
10000548:	fb078793          	add	a5,a5,-80
1000054c:	fef42623          	sw	a5,-20(s0)
10000550:	1080006f          	j	10000658 <print_dec+0x2f4>
10000554:	fec42703          	lw	a4,-20(s0)
10000558:	04500793          	li	a5,69
1000055c:	00e7fe63          	bgeu	a5,a4,10000578 <print_dec+0x214>
10000560:	03700513          	li	a0,55
10000564:	cbdff0ef          	jal	10000220 <putchar>
10000568:	fec42783          	lw	a5,-20(s0)
1000056c:	fba78793          	add	a5,a5,-70
10000570:	fef42623          	sw	a5,-20(s0)
10000574:	0e40006f          	j	10000658 <print_dec+0x2f4>
10000578:	fec42703          	lw	a4,-20(s0)
1000057c:	03b00793          	li	a5,59
10000580:	00e7fe63          	bgeu	a5,a4,1000059c <print_dec+0x238>
10000584:	03600513          	li	a0,54
10000588:	c99ff0ef          	jal	10000220 <putchar>
1000058c:	fec42783          	lw	a5,-20(s0)
10000590:	fc478793          	add	a5,a5,-60
10000594:	fef42623          	sw	a5,-20(s0)
10000598:	0c00006f          	j	10000658 <print_dec+0x2f4>
1000059c:	fec42703          	lw	a4,-20(s0)
100005a0:	03100793          	li	a5,49
100005a4:	00e7fe63          	bgeu	a5,a4,100005c0 <print_dec+0x25c>
100005a8:	03500513          	li	a0,53
100005ac:	c75ff0ef          	jal	10000220 <putchar>
100005b0:	fec42783          	lw	a5,-20(s0)
100005b4:	fce78793          	add	a5,a5,-50
100005b8:	fef42623          	sw	a5,-20(s0)
100005bc:	09c0006f          	j	10000658 <print_dec+0x2f4>
100005c0:	fec42703          	lw	a4,-20(s0)
100005c4:	02700793          	li	a5,39
100005c8:	00e7fe63          	bgeu	a5,a4,100005e4 <print_dec+0x280>
100005cc:	03400513          	li	a0,52
100005d0:	c51ff0ef          	jal	10000220 <putchar>
100005d4:	fec42783          	lw	a5,-20(s0)
100005d8:	fd878793          	add	a5,a5,-40
100005dc:	fef42623          	sw	a5,-20(s0)
100005e0:	0780006f          	j	10000658 <print_dec+0x2f4>
100005e4:	fec42703          	lw	a4,-20(s0)
100005e8:	01d00793          	li	a5,29
100005ec:	00e7fe63          	bgeu	a5,a4,10000608 <print_dec+0x2a4>
100005f0:	03300513          	li	a0,51
100005f4:	c2dff0ef          	jal	10000220 <putchar>
100005f8:	fec42783          	lw	a5,-20(s0)
100005fc:	fe278793          	add	a5,a5,-30
10000600:	fef42623          	sw	a5,-20(s0)
10000604:	0540006f          	j	10000658 <print_dec+0x2f4>
10000608:	fec42703          	lw	a4,-20(s0)
1000060c:	01300793          	li	a5,19
10000610:	00e7fe63          	bgeu	a5,a4,1000062c <print_dec+0x2c8>
10000614:	03200513          	li	a0,50
10000618:	c09ff0ef          	jal	10000220 <putchar>
1000061c:	fec42783          	lw	a5,-20(s0)
10000620:	fec78793          	add	a5,a5,-20
10000624:	fef42623          	sw	a5,-20(s0)
10000628:	0300006f          	j	10000658 <print_dec+0x2f4>
1000062c:	fec42703          	lw	a4,-20(s0)
10000630:	00900793          	li	a5,9
10000634:	00e7fe63          	bgeu	a5,a4,10000650 <print_dec+0x2ec>
10000638:	03100513          	li	a0,49
1000063c:	be5ff0ef          	jal	10000220 <putchar>
10000640:	fec42783          	lw	a5,-20(s0)
10000644:	ff678793          	add	a5,a5,-10
10000648:	fef42623          	sw	a5,-20(s0)
1000064c:	00c0006f          	j	10000658 <print_dec+0x2f4>
10000650:	03000513          	li	a0,48
10000654:	bcdff0ef          	jal	10000220 <putchar>
10000658:	fec42703          	lw	a4,-20(s0)
1000065c:	00800793          	li	a5,8
10000660:	00e7fe63          	bgeu	a5,a4,1000067c <print_dec+0x318>
10000664:	03900513          	li	a0,57
10000668:	bb9ff0ef          	jal	10000220 <putchar>
1000066c:	fec42783          	lw	a5,-20(s0)
10000670:	ff778793          	add	a5,a5,-9
10000674:	fef42623          	sw	a5,-20(s0)
10000678:	1280006f          	j	100007a0 <print_dec+0x43c>
1000067c:	fec42703          	lw	a4,-20(s0)
10000680:	00700793          	li	a5,7
10000684:	00e7fe63          	bgeu	a5,a4,100006a0 <print_dec+0x33c>
10000688:	03800513          	li	a0,56
1000068c:	b95ff0ef          	jal	10000220 <putchar>
10000690:	fec42783          	lw	a5,-20(s0)
10000694:	ff878793          	add	a5,a5,-8
10000698:	fef42623          	sw	a5,-20(s0)
1000069c:	1040006f          	j	100007a0 <print_dec+0x43c>
100006a0:	fec42703          	lw	a4,-20(s0)
100006a4:	00600793          	li	a5,6
100006a8:	00e7fe63          	bgeu	a5,a4,100006c4 <print_dec+0x360>
100006ac:	03700513          	li	a0,55
100006b0:	b71ff0ef          	jal	10000220 <putchar>
100006b4:	fec42783          	lw	a5,-20(s0)
100006b8:	ff978793          	add	a5,a5,-7
100006bc:	fef42623          	sw	a5,-20(s0)
100006c0:	0e00006f          	j	100007a0 <print_dec+0x43c>
100006c4:	fec42703          	lw	a4,-20(s0)
100006c8:	00500793          	li	a5,5
100006cc:	00e7fe63          	bgeu	a5,a4,100006e8 <print_dec+0x384>
100006d0:	03600513          	li	a0,54
100006d4:	b4dff0ef          	jal	10000220 <putchar>
100006d8:	fec42783          	lw	a5,-20(s0)
100006dc:	ffa78793          	add	a5,a5,-6
100006e0:	fef42623          	sw	a5,-20(s0)
100006e4:	0bc0006f          	j	100007a0 <print_dec+0x43c>
100006e8:	fec42703          	lw	a4,-20(s0)
100006ec:	00400793          	li	a5,4
100006f0:	00e7fe63          	bgeu	a5,a4,1000070c <print_dec+0x3a8>
100006f4:	03500513          	li	a0,53
100006f8:	b29ff0ef          	jal	10000220 <putchar>
100006fc:	fec42783          	lw	a5,-20(s0)
10000700:	ffb78793          	add	a5,a5,-5
10000704:	fef42623          	sw	a5,-20(s0)
10000708:	0980006f          	j	100007a0 <print_dec+0x43c>
1000070c:	fec42703          	lw	a4,-20(s0)
10000710:	00300793          	li	a5,3
10000714:	00e7fe63          	bgeu	a5,a4,10000730 <print_dec+0x3cc>
10000718:	03400513          	li	a0,52
1000071c:	b05ff0ef          	jal	10000220 <putchar>
10000720:	fec42783          	lw	a5,-20(s0)
10000724:	ffc78793          	add	a5,a5,-4
10000728:	fef42623          	sw	a5,-20(s0)
1000072c:	0740006f          	j	100007a0 <print_dec+0x43c>
10000730:	fec42703          	lw	a4,-20(s0)
10000734:	00200793          	li	a5,2
10000738:	00e7fe63          	bgeu	a5,a4,10000754 <print_dec+0x3f0>
1000073c:	03300513          	li	a0,51
10000740:	ae1ff0ef          	jal	10000220 <putchar>
10000744:	fec42783          	lw	a5,-20(s0)
10000748:	ffd78793          	add	a5,a5,-3
1000074c:	fef42623          	sw	a5,-20(s0)
10000750:	0500006f          	j	100007a0 <print_dec+0x43c>
10000754:	fec42703          	lw	a4,-20(s0)
10000758:	00100793          	li	a5,1
1000075c:	00e7fe63          	bgeu	a5,a4,10000778 <print_dec+0x414>
10000760:	03200513          	li	a0,50
10000764:	abdff0ef          	jal	10000220 <putchar>
10000768:	fec42783          	lw	a5,-20(s0)
1000076c:	ffe78793          	add	a5,a5,-2
10000770:	fef42623          	sw	a5,-20(s0)
10000774:	02c0006f          	j	100007a0 <print_dec+0x43c>
10000778:	fec42783          	lw	a5,-20(s0)
1000077c:	00078e63          	beqz	a5,10000798 <print_dec+0x434>
10000780:	03100513          	li	a0,49
10000784:	a9dff0ef          	jal	10000220 <putchar>
10000788:	fec42783          	lw	a5,-20(s0)
1000078c:	fff78793          	add	a5,a5,-1
10000790:	fef42623          	sw	a5,-20(s0)
10000794:	00c0006f          	j	100007a0 <print_dec+0x43c>
10000798:	03000513          	li	a0,48
1000079c:	a85ff0ef          	jal	10000220 <putchar>
100007a0:	01c12083          	lw	ra,28(sp)
100007a4:	01812403          	lw	s0,24(sp)
100007a8:	02010113          	add	sp,sp,32
100007ac:	00008067          	ret

100007b0 <print_digit>:
100007b0:	fe010113          	add	sp,sp,-32
100007b4:	00112e23          	sw	ra,28(sp)
100007b8:	00812c23          	sw	s0,24(sp)
100007bc:	02010413          	add	s0,sp,32
100007c0:	fea42623          	sw	a0,-20(s0)
100007c4:	fec42783          	lw	a5,-20(s0)
100007c8:	00f7f793          	and	a5,a5,15
100007cc:	fef42623          	sw	a5,-20(s0)
100007d0:	fec42703          	lw	a4,-20(s0)
100007d4:	00900793          	li	a5,9
100007d8:	00f71863          	bne	a4,a5,100007e8 <print_digit+0x38>
100007dc:	03900513          	li	a0,57
100007e0:	a41ff0ef          	jal	10000220 <putchar>
100007e4:	1700006f          	j	10000954 <print_digit+0x1a4>
100007e8:	fec42703          	lw	a4,-20(s0)
100007ec:	00800793          	li	a5,8
100007f0:	00f71863          	bne	a4,a5,10000800 <print_digit+0x50>
100007f4:	03800513          	li	a0,56
100007f8:	a29ff0ef          	jal	10000220 <putchar>
100007fc:	1580006f          	j	10000954 <print_digit+0x1a4>
10000800:	fec42703          	lw	a4,-20(s0)
10000804:	00700793          	li	a5,7
10000808:	00f71863          	bne	a4,a5,10000818 <print_digit+0x68>
1000080c:	03700513          	li	a0,55
10000810:	a11ff0ef          	jal	10000220 <putchar>
10000814:	1400006f          	j	10000954 <print_digit+0x1a4>
10000818:	fec42703          	lw	a4,-20(s0)
1000081c:	00600793          	li	a5,6
10000820:	00f71863          	bne	a4,a5,10000830 <print_digit+0x80>
10000824:	03600513          	li	a0,54
10000828:	9f9ff0ef          	jal	10000220 <putchar>
1000082c:	1280006f          	j	10000954 <print_digit+0x1a4>
10000830:	fec42703          	lw	a4,-20(s0)
10000834:	00500793          	li	a5,5
10000838:	00f71863          	bne	a4,a5,10000848 <print_digit+0x98>
1000083c:	03500513          	li	a0,53
10000840:	9e1ff0ef          	jal	10000220 <putchar>
10000844:	1100006f          	j	10000954 <print_digit+0x1a4>
10000848:	fec42703          	lw	a4,-20(s0)
1000084c:	00400793          	li	a5,4
10000850:	00f71863          	bne	a4,a5,10000860 <print_digit+0xb0>
10000854:	03400513          	li	a0,52
10000858:	9c9ff0ef          	jal	10000220 <putchar>
1000085c:	0f80006f          	j	10000954 <print_digit+0x1a4>
10000860:	fec42703          	lw	a4,-20(s0)
10000864:	00300793          	li	a5,3
10000868:	00f71863          	bne	a4,a5,10000878 <print_digit+0xc8>
1000086c:	03300513          	li	a0,51
10000870:	9b1ff0ef          	jal	10000220 <putchar>
10000874:	0e00006f          	j	10000954 <print_digit+0x1a4>
10000878:	fec42703          	lw	a4,-20(s0)
1000087c:	00200793          	li	a5,2
10000880:	00f71863          	bne	a4,a5,10000890 <print_digit+0xe0>
10000884:	03200513          	li	a0,50
10000888:	999ff0ef          	jal	10000220 <putchar>
1000088c:	0c80006f          	j	10000954 <print_digit+0x1a4>
10000890:	fec42703          	lw	a4,-20(s0)
10000894:	00100793          	li	a5,1
10000898:	00f71863          	bne	a4,a5,100008a8 <print_digit+0xf8>
1000089c:	03100513          	li	a0,49
100008a0:	981ff0ef          	jal	10000220 <putchar>
100008a4:	0b00006f          	j	10000954 <print_digit+0x1a4>
100008a8:	fec42783          	lw	a5,-20(s0)
100008ac:	00079863          	bnez	a5,100008bc <print_digit+0x10c>
100008b0:	03000513          	li	a0,48
100008b4:	96dff0ef          	jal	10000220 <putchar>
100008b8:	09c0006f          	j	10000954 <print_digit+0x1a4>
100008bc:	fec42703          	lw	a4,-20(s0)
100008c0:	00a00793          	li	a5,10
100008c4:	00f71863          	bne	a4,a5,100008d4 <print_digit+0x124>
100008c8:	06100513          	li	a0,97
100008cc:	955ff0ef          	jal	10000220 <putchar>
100008d0:	0840006f          	j	10000954 <print_digit+0x1a4>
100008d4:	fec42703          	lw	a4,-20(s0)
100008d8:	00b00793          	li	a5,11
100008dc:	00f71863          	bne	a4,a5,100008ec <print_digit+0x13c>
100008e0:	06200513          	li	a0,98
100008e4:	93dff0ef          	jal	10000220 <putchar>
100008e8:	06c0006f          	j	10000954 <print_digit+0x1a4>
100008ec:	fec42703          	lw	a4,-20(s0)
100008f0:	00c00793          	li	a5,12
100008f4:	00f71863          	bne	a4,a5,10000904 <print_digit+0x154>
100008f8:	06300513          	li	a0,99
100008fc:	925ff0ef          	jal	10000220 <putchar>
10000900:	0540006f          	j	10000954 <print_digit+0x1a4>
10000904:	fec42703          	lw	a4,-20(s0)
10000908:	00d00793          	li	a5,13
1000090c:	00f71863          	bne	a4,a5,1000091c <print_digit+0x16c>
10000910:	06400513          	li	a0,100
10000914:	90dff0ef          	jal	10000220 <putchar>
10000918:	03c0006f          	j	10000954 <print_digit+0x1a4>
1000091c:	fec42703          	lw	a4,-20(s0)
10000920:	00e00793          	li	a5,14
10000924:	00f71863          	bne	a4,a5,10000934 <print_digit+0x184>
10000928:	06500513          	li	a0,101
1000092c:	8f5ff0ef          	jal	10000220 <putchar>
10000930:	0240006f          	j	10000954 <print_digit+0x1a4>
10000934:	fec42703          	lw	a4,-20(s0)
10000938:	00f00793          	li	a5,15
1000093c:	00f71863          	bne	a4,a5,1000094c <print_digit+0x19c>
10000940:	06600513          	li	a0,102
10000944:	8ddff0ef          	jal	10000220 <putchar>
10000948:	00c0006f          	j	10000954 <print_digit+0x1a4>
1000094c:	02a00513          	li	a0,42
10000950:	8d1ff0ef          	jal	10000220 <putchar>
10000954:	00000013          	nop
10000958:	01c12083          	lw	ra,28(sp)
1000095c:	01812403          	lw	s0,24(sp)
10000960:	02010113          	add	sp,sp,32
10000964:	00008067          	ret

10000968 <flush_cpu_icache>:
10000968:	ff010113          	add	sp,sp,-16
1000096c:	00812623          	sw	s0,12(sp)
10000970:	01010413          	add	s0,sp,16
10000974:	00000013          	nop
10000978:	00c12403          	lw	s0,12(sp)
1000097c:	01010113          	add	sp,sp,16
10000980:	00008067          	ret

10000984 <flush_cpu_dcache>:
10000984:	ff010113          	add	sp,sp,-16
10000988:	00812623          	sw	s0,12(sp)
1000098c:	01010413          	add	s0,sp,16
10000990:	00000013          	nop
10000994:	00c12403          	lw	s0,12(sp)
10000998:	01010113          	add	sp,sp,16
1000099c:	00008067          	ret

100009a0 <csr_write_simple>:
100009a0:	fe010113          	add	sp,sp,-32
100009a4:	00812e23          	sw	s0,28(sp)
100009a8:	02010413          	add	s0,sp,32
100009ac:	fea42623          	sw	a0,-20(s0)
100009b0:	feb42423          	sw	a1,-24(s0)
100009b4:	fe842783          	lw	a5,-24(s0)
100009b8:	fec42703          	lw	a4,-20(s0)
100009bc:	00e7a023          	sw	a4,0(a5)
100009c0:	00000013          	nop
100009c4:	01c12403          	lw	s0,28(sp)
100009c8:	02010113          	add	sp,sp,32
100009cc:	00008067          	ret

100009d0 <csr_read_simple>:
100009d0:	fe010113          	add	sp,sp,-32
100009d4:	00812e23          	sw	s0,28(sp)
100009d8:	02010413          	add	s0,sp,32
100009dc:	fea42623          	sw	a0,-20(s0)
100009e0:	fec42783          	lw	a5,-20(s0)
100009e4:	0007a783          	lw	a5,0(a5)
100009e8:	00078513          	mv	a0,a5
100009ec:	01c12403          	lw	s0,28(sp)
100009f0:	02010113          	add	sp,sp,32
100009f4:	00008067          	ret

100009f8 <uart_rxempty_read>:
100009f8:	ff010113          	add	sp,sp,-16
100009fc:	00112623          	sw	ra,12(sp)
10000a00:	00812423          	sw	s0,8(sp)
10000a04:	01010413          	add	s0,sp,16
10000a08:	f00067b7          	lui	a5,0xf0006
10000a0c:	80878513          	add	a0,a5,-2040 # f0005808 <_erodata+0xe0004208>
10000a10:	fc1ff0ef          	jal	100009d0 <csr_read_simple>
10000a14:	00050793          	mv	a5,a0
10000a18:	00078513          	mv	a0,a5
10000a1c:	00c12083          	lw	ra,12(sp)
10000a20:	00812403          	lw	s0,8(sp)
10000a24:	01010113          	add	sp,sp,16
10000a28:	00008067          	ret

10000a2c <uart_ev_pending_write>:
10000a2c:	fe010113          	add	sp,sp,-32
10000a30:	00112e23          	sw	ra,28(sp)
10000a34:	00812c23          	sw	s0,24(sp)
10000a38:	02010413          	add	s0,sp,32
10000a3c:	fea42623          	sw	a0,-20(s0)
10000a40:	f00067b7          	lui	a5,0xf0006
10000a44:	81078593          	add	a1,a5,-2032 # f0005810 <_erodata+0xe0004210>
10000a48:	fec42503          	lw	a0,-20(s0)
10000a4c:	f55ff0ef          	jal	100009a0 <csr_write_simple>
10000a50:	00000013          	nop
10000a54:	01c12083          	lw	ra,28(sp)
10000a58:	01812403          	lw	s0,24(sp)
10000a5c:	02010113          	add	sp,sp,32
10000a60:	00008067          	ret

10000a64 <delay>:
10000a64:	fe010113          	add	sp,sp,-32
10000a68:	00812e23          	sw	s0,28(sp)
10000a6c:	02010413          	add	s0,sp,32
10000a70:	fea42623          	sw	a0,-20(s0)
10000a74:	f00057b7          	lui	a5,0xf0005
10000a78:	00878793          	add	a5,a5,8 # f0005008 <_erodata+0xe0003a08>
10000a7c:	0007a023          	sw	zero,0(a5)
10000a80:	f00057b7          	lui	a5,0xf0005
10000a84:	fec42703          	lw	a4,-20(s0)
10000a88:	00e7a023          	sw	a4,0(a5) # f0005000 <_erodata+0xe0003a00>
10000a8c:	f00057b7          	lui	a5,0xf0005
10000a90:	00878793          	add	a5,a5,8 # f0005008 <_erodata+0xe0003a08>
10000a94:	00100713          	li	a4,1
10000a98:	00e7a023          	sw	a4,0(a5)
10000a9c:	f00057b7          	lui	a5,0xf0005
10000aa0:	00c78793          	add	a5,a5,12 # f000500c <_erodata+0xe0003a0c>
10000aa4:	00100713          	li	a4,1
10000aa8:	00e7a023          	sw	a4,0(a5)
10000aac:	0140006f          	j	10000ac0 <delay+0x5c>
10000ab0:	f00057b7          	lui	a5,0xf0005
10000ab4:	00c78793          	add	a5,a5,12 # f000500c <_erodata+0xe0003a0c>
10000ab8:	00100713          	li	a4,1
10000abc:	00e7a023          	sw	a4,0(a5)
10000ac0:	f00057b7          	lui	a5,0xf0005
10000ac4:	01078793          	add	a5,a5,16 # f0005010 <_erodata+0xe0003a10>
10000ac8:	0007a783          	lw	a5,0(a5)
10000acc:	fe0792e3          	bnez	a5,10000ab0 <delay+0x4c>
10000ad0:	00000013          	nop
10000ad4:	00000013          	nop
10000ad8:	01c12403          	lw	s0,28(sp)
10000adc:	02010113          	add	sp,sp,32
10000ae0:	00008067          	ret

10000ae4 <UART_readChar>:
10000ae4:	ff010113          	add	sp,sp,-16
10000ae8:	00112623          	sw	ra,12(sp)
10000aec:	00812423          	sw	s0,8(sp)
10000af0:	01010413          	add	s0,sp,16
10000af4:	00000013          	nop
10000af8:	f01ff0ef          	jal	100009f8 <uart_rxempty_read>
10000afc:	00050713          	mv	a4,a0
10000b00:	00100793          	li	a5,1
10000b04:	fef70ae3          	beq	a4,a5,10000af8 <UART_readChar+0x14>
10000b08:	f00067b7          	lui	a5,0xf0006
10000b0c:	80078793          	add	a5,a5,-2048 # f0005800 <_erodata+0xe0004200>
10000b10:	0007a783          	lw	a5,0(a5)
10000b14:	0ff7f793          	zext.b	a5,a5
10000b18:	00078513          	mv	a0,a5
10000b1c:	00c12083          	lw	ra,12(sp)
10000b20:	00812403          	lw	s0,8(sp)
10000b24:	01010113          	add	sp,sp,16
10000b28:	00008067          	ret

10000b2c <UART_popChar>:
10000b2c:	ff010113          	add	sp,sp,-16
10000b30:	00112623          	sw	ra,12(sp)
10000b34:	00812423          	sw	s0,8(sp)
10000b38:	01010413          	add	s0,sp,16
10000b3c:	00200513          	li	a0,2
10000b40:	eedff0ef          	jal	10000a2c <uart_ev_pending_write>
10000b44:	00000013          	nop
10000b48:	00c12083          	lw	ra,12(sp)
10000b4c:	00812403          	lw	s0,8(sp)
10000b50:	01010113          	add	sp,sp,16
10000b54:	00008067          	ret

10000b58 <UART_sendChar>:
10000b58:	fe010113          	add	sp,sp,-32
10000b5c:	00812e23          	sw	s0,28(sp)
10000b60:	02010413          	add	s0,sp,32
10000b64:	00050793          	mv	a5,a0
10000b68:	fef407a3          	sb	a5,-17(s0)
10000b6c:	00000013          	nop
10000b70:	f00067b7          	lui	a5,0xf0006
10000b74:	80478793          	add	a5,a5,-2044 # f0005804 <_erodata+0xe0004204>
10000b78:	0007a703          	lw	a4,0(a5)
10000b7c:	00100793          	li	a5,1
10000b80:	fef708e3          	beq	a4,a5,10000b70 <UART_sendChar+0x18>
10000b84:	f00067b7          	lui	a5,0xf0006
10000b88:	80078793          	add	a5,a5,-2048 # f0005800 <_erodata+0xe0004200>
10000b8c:	fef44703          	lbu	a4,-17(s0)
10000b90:	00e7a023          	sw	a4,0(a5)
10000b94:	00000013          	nop
10000b98:	01c12403          	lw	s0,28(sp)
10000b9c:	02010113          	add	sp,sp,32
10000ba0:	00008067          	ret

10000ba4 <UART_sendInt>:
10000ba4:	fd010113          	add	sp,sp,-48
10000ba8:	02112623          	sw	ra,44(sp)
10000bac:	02812423          	sw	s0,40(sp)
10000bb0:	03010413          	add	s0,sp,48
10000bb4:	fca42e23          	sw	a0,-36(s0)
10000bb8:	fe042623          	sw	zero,-20(s0)
10000bbc:	07c0006f          	j	10000c38 <UART_sendInt+0x94>
10000bc0:	fec42783          	lw	a5,-20(s0)
10000bc4:	00279793          	sll	a5,a5,0x2
10000bc8:	fdc42703          	lw	a4,-36(s0)
10000bcc:	00f757b3          	srl	a5,a4,a5
10000bd0:	fef42223          	sw	a5,-28(s0)
10000bd4:	fe442783          	lw	a5,-28(s0)
10000bd8:	06078863          	beqz	a5,10000c48 <UART_sendInt+0xa4>
10000bdc:	fe442783          	lw	a5,-28(s0)
10000be0:	00f7f793          	and	a5,a5,15
10000be4:	fef42223          	sw	a5,-28(s0)
10000be8:	fe442783          	lw	a5,-28(s0)
10000bec:	0207c263          	bltz	a5,10000c10 <UART_sendInt+0x6c>
10000bf0:	fe442703          	lw	a4,-28(s0)
10000bf4:	00900793          	li	a5,9
10000bf8:	00e7cc63          	blt	a5,a4,10000c10 <UART_sendInt+0x6c>
10000bfc:	fe442783          	lw	a5,-28(s0)
10000c00:	0ff7f793          	zext.b	a5,a5
10000c04:	03078793          	add	a5,a5,48
10000c08:	fef405a3          	sb	a5,-21(s0)
10000c0c:	0140006f          	j	10000c20 <UART_sendInt+0x7c>
10000c10:	fe442783          	lw	a5,-28(s0)
10000c14:	0ff7f793          	zext.b	a5,a5
10000c18:	03778793          	add	a5,a5,55
10000c1c:	fef405a3          	sb	a5,-21(s0)
10000c20:	feb44783          	lbu	a5,-21(s0)
10000c24:	00078513          	mv	a0,a5
10000c28:	f31ff0ef          	jal	10000b58 <UART_sendChar>
10000c2c:	fec42783          	lw	a5,-20(s0)
10000c30:	00178793          	add	a5,a5,1
10000c34:	fef42623          	sw	a5,-20(s0)
10000c38:	fec42703          	lw	a4,-20(s0)
10000c3c:	00700793          	li	a5,7
10000c40:	f8e7d0e3          	bge	a5,a4,10000bc0 <UART_sendInt+0x1c>
10000c44:	0080006f          	j	10000c4c <UART_sendInt+0xa8>
10000c48:	00000013          	nop
10000c4c:	00a00513          	li	a0,10
10000c50:	f09ff0ef          	jal	10000b58 <UART_sendChar>
10000c54:	00000013          	nop
10000c58:	02c12083          	lw	ra,44(sp)
10000c5c:	02812403          	lw	s0,40(sp)
10000c60:	03010113          	add	sp,sp,48
10000c64:	00008067          	ret

10000c68 <print_gpio_values_header>:
10000c68:	fe010113          	add	sp,sp,-32
10000c6c:	00112e23          	sw	ra,28(sp)
10000c70:	00812c23          	sw	s0,24(sp)
10000c74:	02010413          	add	s0,sp,32
10000c78:	03000793          	li	a5,48
10000c7c:	fef407a3          	sb	a5,-17(s0)
10000c80:	03000793          	li	a5,48
10000c84:	fef40723          	sb	a5,-18(s0)
10000c88:	fe042423          	sw	zero,-24(s0)
10000c8c:	06c0006f          	j	10000cf8 <print_gpio_values_header+0x90>
10000c90:	100017b7          	lui	a5,0x10001
10000c94:	52878513          	add	a0,a5,1320 # 10001528 <hack_program+0xc>
10000c98:	df0ff0ef          	jal	10000288 <print>
10000c9c:	fee44783          	lbu	a5,-18(s0)
10000ca0:	00078513          	mv	a0,a5
10000ca4:	d7cff0ef          	jal	10000220 <putchar>
10000ca8:	fef44783          	lbu	a5,-17(s0)
10000cac:	00078513          	mv	a0,a5
10000cb0:	d70ff0ef          	jal	10000220 <putchar>
10000cb4:	100017b7          	lui	a5,0x10001
10000cb8:	52c78513          	add	a0,a5,1324 # 1000152c <hack_program+0x10>
10000cbc:	dccff0ef          	jal	10000288 <print>
10000cc0:	fef44783          	lbu	a5,-17(s0)
10000cc4:	00178793          	add	a5,a5,1
10000cc8:	fef407a3          	sb	a5,-17(s0)
10000ccc:	fef44703          	lbu	a4,-17(s0)
10000cd0:	03900793          	li	a5,57
10000cd4:	00e7fc63          	bgeu	a5,a4,10000cec <print_gpio_values_header+0x84>
10000cd8:	03000793          	li	a5,48
10000cdc:	fef407a3          	sb	a5,-17(s0)
10000ce0:	fee44783          	lbu	a5,-18(s0)
10000ce4:	00178793          	add	a5,a5,1
10000ce8:	fef40723          	sb	a5,-18(s0)
10000cec:	fe842783          	lw	a5,-24(s0)
10000cf0:	00178793          	add	a5,a5,1
10000cf4:	fef42423          	sw	a5,-24(s0)
10000cf8:	fe842703          	lw	a4,-24(s0)
10000cfc:	02500793          	li	a5,37
10000d00:	f8e7d8e3          	bge	a5,a4,10000c90 <print_gpio_values_header+0x28>
10000d04:	100017b7          	lui	a5,0x10001
10000d08:	53078513          	add	a0,a5,1328 # 10001530 <hack_program+0x14>
10000d0c:	d7cff0ef          	jal	10000288 <print>
10000d10:	00000013          	nop
10000d14:	01c12083          	lw	ra,28(sp)
10000d18:	01812403          	lw	s0,24(sp)
10000d1c:	02010113          	add	sp,sp,32
10000d20:	00008067          	ret

10000d24 <print_gpio_for_serial_plot>:
10000d24:	fe010113          	add	sp,sp,-32
10000d28:	00112e23          	sw	ra,28(sp)
10000d2c:	00812c23          	sw	s0,24(sp)
10000d30:	02010413          	add	s0,sp,32
10000d34:	100017b7          	lui	a5,0x10001
10000d38:	53478513          	add	a0,a5,1332 # 10001534 <hack_program+0x18>
10000d3c:	d4cff0ef          	jal	10000288 <print>
10000d40:	fe042623          	sw	zero,-20(s0)
10000d44:	08c0006f          	j	10000dd0 <print_gpio_for_serial_plot+0xac>
10000d48:	fec42703          	lw	a4,-20(s0)
10000d4c:	01f00793          	li	a5,31
10000d50:	02e7c263          	blt	a5,a4,10000d74 <print_gpio_for_serial_plot+0x50>
10000d54:	260007b7          	lui	a5,0x26000
10000d58:	00c78793          	add	a5,a5,12 # 2600000c <_erodata+0x15ffea0c>
10000d5c:	0007a703          	lw	a4,0(a5)
10000d60:	fec42783          	lw	a5,-20(s0)
10000d64:	00f757b3          	srl	a5,a4,a5
10000d68:	0017f793          	and	a5,a5,1
10000d6c:	fef42423          	sw	a5,-24(s0)
10000d70:	0240006f          	j	10000d94 <print_gpio_for_serial_plot+0x70>
10000d74:	260007b7          	lui	a5,0x26000
10000d78:	01078793          	add	a5,a5,16 # 26000010 <_erodata+0x15ffea10>
10000d7c:	0007a703          	lw	a4,0(a5)
10000d80:	fec42783          	lw	a5,-20(s0)
10000d84:	fe078793          	add	a5,a5,-32
10000d88:	00f757b3          	srl	a5,a4,a5
10000d8c:	0017f793          	and	a5,a5,1
10000d90:	fef42423          	sw	a5,-24(s0)
10000d94:	fe842783          	lw	a5,-24(s0)
10000d98:	00078a63          	beqz	a5,10000dac <print_gpio_for_serial_plot+0x88>
10000d9c:	100017b7          	lui	a5,0x10001
10000da0:	53878513          	add	a0,a5,1336 # 10001538 <hack_program+0x1c>
10000da4:	ce4ff0ef          	jal	10000288 <print>
10000da8:	0100006f          	j	10000db8 <print_gpio_for_serial_plot+0x94>
10000dac:	100017b7          	lui	a5,0x10001
10000db0:	53c78513          	add	a0,a5,1340 # 1000153c <hack_program+0x20>
10000db4:	cd4ff0ef          	jal	10000288 <print>
10000db8:	100017b7          	lui	a5,0x10001
10000dbc:	54078513          	add	a0,a5,1344 # 10001540 <hack_program+0x24>
10000dc0:	cc8ff0ef          	jal	10000288 <print>
10000dc4:	fec42783          	lw	a5,-20(s0)
10000dc8:	00178793          	add	a5,a5,1
10000dcc:	fef42623          	sw	a5,-20(s0)
10000dd0:	fec42703          	lw	a4,-20(s0)
10000dd4:	02500793          	li	a5,37
10000dd8:	f6e7d8e3          	bge	a5,a4,10000d48 <print_gpio_for_serial_plot+0x24>
10000ddc:	100017b7          	lui	a5,0x10001
10000de0:	54478513          	add	a0,a5,1348 # 10001544 <hack_program+0x28>
10000de4:	ca4ff0ef          	jal	10000288 <print>
10000de8:	00000013          	nop
10000dec:	01c12083          	lw	ra,28(sp)
10000df0:	01812403          	lw	s0,24(sp)
10000df4:	02010113          	add	sp,sp,32
10000df8:	00008067          	ret

10000dfc <rom_loader>:
10000dfc:	fe010113          	add	sp,sp,-32
10000e00:	00812e23          	sw	s0,28(sp)
10000e04:	02010413          	add	s0,sp,32
10000e08:	00500793          	li	a5,5
10000e0c:	fef41523          	sh	a5,-22(s0)
10000e10:	00400793          	li	a5,4
10000e14:	00100713          	li	a4,1
10000e18:	00e781a3          	sb	a4,3(a5)
10000e1c:	00c02783          	lw	a5,12(zero) # c <tmp_la1_data>
10000e20:	bff7f713          	and	a4,a5,-1025
10000e24:	00400793          	li	a5,4
10000e28:	0037c783          	lbu	a5,3(a5)
10000e2c:	00a79793          	sll	a5,a5,0xa
10000e30:	00f76733          	or	a4,a4,a5
10000e34:	00e02623          	sw	a4,12(zero) # c <tmp_la1_data>
10000e38:	fe042623          	sw	zero,-20(s0)
10000e3c:	0c00006f          	j	10000efc <rom_loader+0x100>
10000e40:	100017b7          	lui	a5,0x10001
10000e44:	51c78713          	add	a4,a5,1308 # 1000151c <hack_program>
10000e48:	fec42783          	lw	a5,-20(s0)
10000e4c:	00179793          	sll	a5,a5,0x1
10000e50:	00f707b3          	add	a5,a4,a5
10000e54:	0007d703          	lhu	a4,0(a5)
10000e58:	00400793          	li	a5,4
10000e5c:	00e79223          	sh	a4,4(a5)
10000e60:	00c02703          	lw	a4,12(zero) # c <tmp_la1_data>
10000e64:	f80007b7          	lui	a5,0xf8000
10000e68:	7ff78793          	add	a5,a5,2047 # f80007ff <_erodata+0xe7fff1ff>
10000e6c:	00f77733          	and	a4,a4,a5
10000e70:	00400793          	li	a5,4
10000e74:	0047d783          	lhu	a5,4(a5)
10000e78:	00b79793          	sll	a5,a5,0xb
10000e7c:	00f76733          	or	a4,a4,a5
10000e80:	00e02623          	sw	a4,12(zero) # c <tmp_la1_data>
10000e84:	00400793          	li	a5,4
10000e88:	00100713          	li	a4,1
10000e8c:	00e78123          	sb	a4,2(a5)
10000e90:	00c02783          	lw	a5,12(zero) # c <tmp_la1_data>
10000e94:	dff7f713          	and	a4,a5,-513
10000e98:	00400793          	li	a5,4
10000e9c:	0027c783          	lbu	a5,2(a5)
10000ea0:	00979793          	sll	a5,a5,0x9
10000ea4:	00f76733          	or	a4,a4,a5
10000ea8:	00e02623          	sw	a4,12(zero) # c <tmp_la1_data>
10000eac:	f00037b7          	lui	a5,0xf0003
10000eb0:	03878793          	add	a5,a5,56 # f0003038 <_erodata+0xe0001a38>
10000eb4:	00c02703          	lw	a4,12(zero) # c <tmp_la1_data>
10000eb8:	00e7a023          	sw	a4,0(a5)
10000ebc:	00400793          	li	a5,4
10000ec0:	00078123          	sb	zero,2(a5)
10000ec4:	00c02783          	lw	a5,12(zero) # c <tmp_la1_data>
10000ec8:	dff7f713          	and	a4,a5,-513
10000ecc:	00400793          	li	a5,4
10000ed0:	0027c783          	lbu	a5,2(a5)
10000ed4:	00979793          	sll	a5,a5,0x9
10000ed8:	00f76733          	or	a4,a4,a5
10000edc:	00e02623          	sw	a4,12(zero) # c <tmp_la1_data>
10000ee0:	f00037b7          	lui	a5,0xf0003
10000ee4:	03878793          	add	a5,a5,56 # f0003038 <_erodata+0xe0001a38>
10000ee8:	00c02703          	lw	a4,12(zero) # c <tmp_la1_data>
10000eec:	00e7a023          	sw	a4,0(a5)
10000ef0:	fec42783          	lw	a5,-20(s0)
10000ef4:	00178793          	add	a5,a5,1
10000ef8:	fef42623          	sw	a5,-20(s0)
10000efc:	fea45783          	lhu	a5,-22(s0)
10000f00:	fec42703          	lw	a4,-20(s0)
10000f04:	f2f74ee3          	blt	a4,a5,10000e40 <rom_loader+0x44>
10000f08:	00400793          	li	a5,4
10000f0c:	000781a3          	sb	zero,3(a5)
10000f10:	00c02783          	lw	a5,12(zero) # c <tmp_la1_data>
10000f14:	bff7f713          	and	a4,a5,-1025
10000f18:	00400793          	li	a5,4
10000f1c:	0037c783          	lbu	a5,3(a5)
10000f20:	00a79793          	sll	a5,a5,0xa
10000f24:	00f76733          	or	a4,a4,a5
10000f28:	00e02623          	sw	a4,12(zero) # c <tmp_la1_data>
10000f2c:	f00037b7          	lui	a5,0xf0003
10000f30:	03878793          	add	a5,a5,56 # f0003038 <_erodata+0xe0001a38>
10000f34:	00c02703          	lw	a4,12(zero) # c <tmp_la1_data>
10000f38:	00e7a023          	sw	a4,0(a5)
10000f3c:	00000013          	nop
10000f40:	01c12403          	lw	s0,28(sp)
10000f44:	02010113          	add	sp,sp,32
10000f48:	00008067          	ret

10000f4c <main>:
10000f4c:	ff010113          	add	sp,sp,-16
10000f50:	00112623          	sw	ra,12(sp)
10000f54:	00812423          	sw	s0,8(sp)
10000f58:	01010413          	add	s0,sp,16
10000f5c:	260007b7          	lui	a5,0x26000
10000f60:	0b878793          	add	a5,a5,184 # 260000b8 <_erodata+0x15ffeab8>
10000f64:	00002737          	lui	a4,0x2
10000f68:	80870713          	add	a4,a4,-2040 # 1808 <_fstack+0x1408>
10000f6c:	00e7a023          	sw	a4,0(a5)
10000f70:	260007b7          	lui	a5,0x26000
10000f74:	0b478793          	add	a5,a5,180 # 260000b4 <_erodata+0x15ffeab4>
10000f78:	00002737          	lui	a4,0x2
10000f7c:	80870713          	add	a4,a4,-2040 # 1808 <_fstack+0x1408>
10000f80:	00e7a023          	sw	a4,0(a5)
10000f84:	260007b7          	lui	a5,0x26000
10000f88:	0b078793          	add	a5,a5,176 # 260000b0 <_erodata+0x15ffeab0>
10000f8c:	00002737          	lui	a4,0x2
10000f90:	80870713          	add	a4,a4,-2040 # 1808 <_fstack+0x1408>
10000f94:	00e7a023          	sw	a4,0(a5)
10000f98:	260007b7          	lui	a5,0x26000
10000f9c:	0ac78793          	add	a5,a5,172 # 260000ac <_erodata+0x15ffeaac>
10000fa0:	00002737          	lui	a4,0x2
10000fa4:	80870713          	add	a4,a4,-2040 # 1808 <_fstack+0x1408>
10000fa8:	00e7a023          	sw	a4,0(a5)
10000fac:	260007b7          	lui	a5,0x26000
10000fb0:	0a878793          	add	a5,a5,168 # 260000a8 <_erodata+0x15ffeaa8>
10000fb4:	40200713          	li	a4,1026
10000fb8:	00e7a023          	sw	a4,0(a5)
10000fbc:	260007b7          	lui	a5,0x26000
10000fc0:	0a478793          	add	a5,a5,164 # 260000a4 <_erodata+0x15ffeaa4>
10000fc4:	40200713          	li	a4,1026
10000fc8:	00e7a023          	sw	a4,0(a5)
10000fcc:	260007b7          	lui	a5,0x26000
10000fd0:	0a078793          	add	a5,a5,160 # 260000a0 <_erodata+0x15ffeaa0>
10000fd4:	40200713          	li	a4,1026
10000fd8:	00e7a023          	sw	a4,0(a5)
10000fdc:	260007b7          	lui	a5,0x26000
10000fe0:	09c78793          	add	a5,a5,156 # 2600009c <_erodata+0x15ffea9c>
10000fe4:	40200713          	li	a4,1026
10000fe8:	00e7a023          	sw	a4,0(a5)
10000fec:	260007b7          	lui	a5,0x26000
10000ff0:	09878793          	add	a5,a5,152 # 26000098 <_erodata+0x15ffea98>
10000ff4:	00002737          	lui	a4,0x2
10000ff8:	80870713          	add	a4,a4,-2040 # 1808 <_fstack+0x1408>
10000ffc:	00e7a023          	sw	a4,0(a5)
10001000:	260007b7          	lui	a5,0x26000
10001004:	09478793          	add	a5,a5,148 # 26000094 <_erodata+0x15ffea94>
10001008:	00002737          	lui	a4,0x2
1000100c:	80870713          	add	a4,a4,-2040 # 1808 <_fstack+0x1408>
10001010:	00e7a023          	sw	a4,0(a5)
10001014:	260007b7          	lui	a5,0x26000
10001018:	09078793          	add	a5,a5,144 # 26000090 <_erodata+0x15ffea90>
1000101c:	00002737          	lui	a4,0x2
10001020:	80870713          	add	a4,a4,-2040 # 1808 <_fstack+0x1408>
10001024:	00e7a023          	sw	a4,0(a5)
10001028:	260007b7          	lui	a5,0x26000
1000102c:	08c78793          	add	a5,a5,140 # 2600008c <_erodata+0x15ffea8c>
10001030:	40200713          	li	a4,1026
10001034:	00e7a023          	sw	a4,0(a5)
10001038:	260007b7          	lui	a5,0x26000
1000103c:	08878793          	add	a5,a5,136 # 26000088 <_erodata+0x15ffea88>
10001040:	00002737          	lui	a4,0x2
10001044:	80070713          	add	a4,a4,-2048 # 1800 <_fstack+0x1400>
10001048:	00e7a023          	sw	a4,0(a5)
1000104c:	260007b7          	lui	a5,0x26000
10001050:	08478793          	add	a5,a5,132 # 26000084 <_erodata+0x15ffea84>
10001054:	00002737          	lui	a4,0x2
10001058:	80070713          	add	a4,a4,-2048 # 1800 <_fstack+0x1400>
1000105c:	00e7a023          	sw	a4,0(a5)
10001060:	260007b7          	lui	a5,0x26000
10001064:	08078793          	add	a5,a5,128 # 26000080 <_erodata+0x15ffea80>
10001068:	00002737          	lui	a4,0x2
1000106c:	80070713          	add	a4,a4,-2048 # 1800 <_fstack+0x1400>
10001070:	00e7a023          	sw	a4,0(a5)
10001074:	260007b7          	lui	a5,0x26000
10001078:	07c78793          	add	a5,a5,124 # 2600007c <_erodata+0x15ffea7c>
1000107c:	00002737          	lui	a4,0x2
10001080:	80070713          	add	a4,a4,-2048 # 1800 <_fstack+0x1400>
10001084:	00e7a023          	sw	a4,0(a5)
10001088:	260007b7          	lui	a5,0x26000
1000108c:	07878793          	add	a5,a5,120 # 26000078 <_erodata+0x15ffea78>
10001090:	00002737          	lui	a4,0x2
10001094:	80870713          	add	a4,a4,-2040 # 1808 <_fstack+0x1408>
10001098:	00e7a023          	sw	a4,0(a5)
1000109c:	260007b7          	lui	a5,0x26000
100010a0:	07478793          	add	a5,a5,116 # 26000074 <_erodata+0x15ffea74>
100010a4:	00002737          	lui	a4,0x2
100010a8:	80870713          	add	a4,a4,-2040 # 1808 <_fstack+0x1408>
100010ac:	00e7a023          	sw	a4,0(a5)
100010b0:	260007b7          	lui	a5,0x26000
100010b4:	07078793          	add	a5,a5,112 # 26000070 <_erodata+0x15ffea70>
100010b8:	00002737          	lui	a4,0x2
100010bc:	80070713          	add	a4,a4,-2048 # 1800 <_fstack+0x1400>
100010c0:	00e7a023          	sw	a4,0(a5)
100010c4:	260007b7          	lui	a5,0x26000
100010c8:	06c78793          	add	a5,a5,108 # 2600006c <_erodata+0x15ffea6c>
100010cc:	00002737          	lui	a4,0x2
100010d0:	80070713          	add	a4,a4,-2048 # 1800 <_fstack+0x1400>
100010d4:	00e7a023          	sw	a4,0(a5)
100010d8:	260007b7          	lui	a5,0x26000
100010dc:	06878793          	add	a5,a5,104 # 26000068 <_erodata+0x15ffea68>
100010e0:	00002737          	lui	a4,0x2
100010e4:	80070713          	add	a4,a4,-2048 # 1800 <_fstack+0x1400>
100010e8:	00e7a023          	sw	a4,0(a5)
100010ec:	260007b7          	lui	a5,0x26000
100010f0:	06478793          	add	a5,a5,100 # 26000064 <_erodata+0x15ffea64>
100010f4:	00002737          	lui	a4,0x2
100010f8:	80070713          	add	a4,a4,-2048 # 1800 <_fstack+0x1400>
100010fc:	00e7a023          	sw	a4,0(a5)
10001100:	260007b7          	lui	a5,0x26000
10001104:	06078793          	add	a5,a5,96 # 26000060 <_erodata+0x15ffea60>
10001108:	00002737          	lui	a4,0x2
1000110c:	80870713          	add	a4,a4,-2040 # 1808 <_fstack+0x1408>
10001110:	00e7a023          	sw	a4,0(a5)
10001114:	260007b7          	lui	a5,0x26000
10001118:	05c78793          	add	a5,a5,92 # 2600005c <_erodata+0x15ffea5c>
1000111c:	00002737          	lui	a4,0x2
10001120:	80870713          	add	a4,a4,-2040 # 1808 <_fstack+0x1408>
10001124:	00e7a023          	sw	a4,0(a5)
10001128:	260007b7          	lui	a5,0x26000
1000112c:	05878793          	add	a5,a5,88 # 26000058 <_erodata+0x15ffea58>
10001130:	00002737          	lui	a4,0x2
10001134:	80070713          	add	a4,a4,-2048 # 1800 <_fstack+0x1400>
10001138:	00e7a023          	sw	a4,0(a5)
1000113c:	260007b7          	lui	a5,0x26000
10001140:	05478793          	add	a5,a5,84 # 26000054 <_erodata+0x15ffea54>
10001144:	00002737          	lui	a4,0x2
10001148:	80070713          	add	a4,a4,-2048 # 1800 <_fstack+0x1400>
1000114c:	00e7a023          	sw	a4,0(a5)
10001150:	260007b7          	lui	a5,0x26000
10001154:	05078793          	add	a5,a5,80 # 26000050 <_erodata+0x15ffea50>
10001158:	00002737          	lui	a4,0x2
1000115c:	80070713          	add	a4,a4,-2048 # 1800 <_fstack+0x1400>
10001160:	00e7a023          	sw	a4,0(a5)
10001164:	260007b7          	lui	a5,0x26000
10001168:	04c78793          	add	a5,a5,76 # 2600004c <_erodata+0x15ffea4c>
1000116c:	00002737          	lui	a4,0x2
10001170:	80070713          	add	a4,a4,-2048 # 1800 <_fstack+0x1400>
10001174:	00e7a023          	sw	a4,0(a5)
10001178:	260007b7          	lui	a5,0x26000
1000117c:	04878793          	add	a5,a5,72 # 26000048 <_erodata+0x15ffea48>
10001180:	00002737          	lui	a4,0x2
10001184:	80870713          	add	a4,a4,-2040 # 1808 <_fstack+0x1408>
10001188:	00e7a023          	sw	a4,0(a5)
1000118c:	260007b7          	lui	a5,0x26000
10001190:	04478793          	add	a5,a5,68 # 26000044 <_erodata+0x15ffea44>
10001194:	00002737          	lui	a4,0x2
10001198:	80870713          	add	a4,a4,-2040 # 1808 <_fstack+0x1408>
1000119c:	00e7a023          	sw	a4,0(a5)
100011a0:	260007b7          	lui	a5,0x26000
100011a4:	03878793          	add	a5,a5,56 # 26000038 <_erodata+0x15ffea38>
100011a8:	40300713          	li	a4,1027
100011ac:	00e7a023          	sw	a4,0(a5)
100011b0:	260007b7          	lui	a5,0x26000
100011b4:	03c78793          	add	a5,a5,60 # 2600003c <_erodata+0x15ffea3c>
100011b8:	00002737          	lui	a4,0x2
100011bc:	80970713          	add	a4,a4,-2039 # 1809 <_fstack+0x1409>
100011c0:	00e7a023          	sw	a4,0(a5)
100011c4:	260007b7          	lui	a5,0x26000
100011c8:	00100713          	li	a4,1
100011cc:	00e7a023          	sw	a4,0(a5) # 26000000 <_erodata+0x15ffea00>
100011d0:	00000013          	nop
100011d4:	260007b7          	lui	a5,0x26000
100011d8:	0007a703          	lw	a4,0(a5) # 26000000 <_erodata+0x15ffea00>
100011dc:	00100793          	li	a5,1
100011e0:	fef70ae3          	beq	a4,a5,100011d4 <main+0x288>
100011e4:	f00037b7          	lui	a5,0xf0003
100011e8:	00878713          	add	a4,a5,8 # f0003008 <_erodata+0xe0001a08>
100011ec:	fff00793          	li	a5,-1
100011f0:	00f72023          	sw	a5,0(a4)
100011f4:	f0003737          	lui	a4,0xf0003
100011f8:	01870713          	add	a4,a4,24 # f0003018 <_erodata+0xe0001a18>
100011fc:	00f72023          	sw	a5,0(a4)
10001200:	261007b7          	lui	a5,0x26100
10001204:	00c78793          	add	a5,a5,12 # 2610000c <_erodata+0x160fea0c>
10001208:	00100713          	li	a4,1
1000120c:	00e7a023          	sw	a4,0(a5)
10001210:	261007b7          	lui	a5,0x26100
10001214:	02078793          	add	a5,a5,32 # 26100020 <_erodata+0x160fea20>
10001218:	00400713          	li	a4,4
1000121c:	00e7a023          	sw	a4,0(a5)
10001220:	261007b7          	lui	a5,0x26100
10001224:	02478793          	add	a5,a5,36 # 26100024 <_erodata+0x160fea24>
10001228:	00a00713          	li	a4,10
1000122c:	00e7a023          	sw	a4,0(a5)
10001230:	261007b7          	lui	a5,0x26100
10001234:	01078793          	add	a5,a5,16 # 26100010 <_erodata+0x160fea10>
10001238:	0007a023          	sw	zero,0(a5)
1000123c:	f00037b7          	lui	a5,0xf0003
10001240:	01878793          	add	a5,a5,24 # f0003018 <_erodata+0xe0001a18>
10001244:	0007a683          	lw	a3,0(a5)
10001248:	f00037b7          	lui	a5,0xf0003
1000124c:	01878713          	add	a4,a5,24 # f0003018 <_erodata+0xe0001a18>
10001250:	f80007b7          	lui	a5,0xf8000
10001254:	fff78793          	add	a5,a5,-1 # f7ffffff <_erodata+0xe7ffe9ff>
10001258:	00f6f7b3          	and	a5,a3,a5
1000125c:	00f72023          	sw	a5,0(a4)
10001260:	f0003737          	lui	a4,0xf0003
10001264:	00870713          	add	a4,a4,8 # f0003008 <_erodata+0xe0001a08>
10001268:	00f72023          	sw	a5,0(a4)
1000126c:	f00067b7          	lui	a5,0xf0006
10001270:	00100713          	li	a4,1
10001274:	00e7a023          	sw	a4,0(a5) # f0006000 <_erodata+0xe0004a00>
10001278:	f00037b7          	lui	a5,0xf0003
1000127c:	80078793          	add	a5,a5,-2048 # f0002800 <_erodata+0xe0001200>
10001280:	00100713          	li	a4,1
10001284:	00e7a023          	sw	a4,0(a5)
10001288:	f00037b7          	lui	a5,0xf0003
1000128c:	80478793          	add	a5,a5,-2044 # f0002804 <_erodata+0xe0001204>
10001290:	0007a023          	sw	zero,0(a5)
10001294:	f00037b7          	lui	a5,0xf0003
10001298:	80878793          	add	a5,a5,-2040 # f0002808 <_erodata+0xe0001208>
1000129c:	00100713          	li	a4,1
100012a0:	00e7a023          	sw	a4,0(a5)
100012a4:	f00037b7          	lui	a5,0xf0003
100012a8:	80c78793          	add	a5,a5,-2036 # f000280c <_erodata+0xe000120c>
100012ac:	0007a023          	sw	zero,0(a5)
100012b0:	004c57b7          	lui	a5,0x4c5
100012b4:	b4078513          	add	a0,a5,-1216 # 4c4b40 <_fstack+0x4c4740>
100012b8:	facff0ef          	jal	10000a64 <delay>
100012bc:	00400793          	li	a5,4
100012c0:	00100713          	li	a4,1
100012c4:	00e78023          	sb	a4,0(a5)
100012c8:	00400793          	li	a5,4
100012cc:	06100713          	li	a4,97
100012d0:	00e780a3          	sb	a4,1(a5)
100012d4:	00400793          	li	a5,4
100012d8:	000781a3          	sb	zero,3(a5)
100012dc:	00400793          	li	a5,4
100012e0:	00100713          	li	a4,1
100012e4:	00e78323          	sb	a4,6(a5)
100012e8:	00400793          	li	a5,4
100012ec:	0007c783          	lbu	a5,0(a5)
100012f0:	00078713          	mv	a4,a5
100012f4:	00400793          	li	a5,4
100012f8:	0017c783          	lbu	a5,1(a5)
100012fc:	00179793          	sll	a5,a5,0x1
10001300:	00f76733          	or	a4,a4,a5
10001304:	00400793          	li	a5,4
10001308:	0037c783          	lbu	a5,3(a5)
1000130c:	00a79793          	sll	a5,a5,0xa
10001310:	00f76733          	or	a4,a4,a5
10001314:	00400793          	li	a5,4
10001318:	0067c783          	lbu	a5,6(a5)
1000131c:	01c79793          	sll	a5,a5,0x1c
10001320:	00f767b3          	or	a5,a4,a5
10001324:	00078713          	mv	a4,a5
10001328:	00e02623          	sw	a4,12(zero) # c <tmp_la1_data>
1000132c:	f00037b7          	lui	a5,0xf0003
10001330:	03878793          	add	a5,a5,56 # f0003038 <_erodata+0xe0001a38>
10001334:	00c02703          	lw	a4,12(zero) # c <tmp_la1_data>
10001338:	00e7a023          	sw	a4,0(a5)
1000133c:	f00037b7          	lui	a5,0xf0003
10001340:	00c78793          	add	a5,a5,12 # f000300c <_erodata+0xe0001a0c>
10001344:	fff00713          	li	a4,-1
10001348:	00e7a023          	sw	a4,0(a5)
1000134c:	f00037b7          	lui	a5,0xf0003
10001350:	01c78793          	add	a5,a5,28 # f000301c <_erodata+0xe0001a1c>
10001354:	fff00713          	li	a4,-1
10001358:	00e7a023          	sw	a4,0(a5)
1000135c:	f00037b7          	lui	a5,0xf0003
10001360:	03c78793          	add	a5,a5,60 # f000303c <_erodata+0xe0001a3c>
10001364:	00001737          	lui	a4,0x1
10001368:	80070713          	add	a4,a4,-2048 # 800 <_fstack+0x400>
1000136c:	00e7a023          	sw	a4,0(a5)
10001370:	00400793          	li	a5,4
10001374:	00078023          	sb	zero,0(a5)
10001378:	00c02783          	lw	a5,12(zero) # c <tmp_la1_data>
1000137c:	ffe7f793          	and	a5,a5,-2
10001380:	00400713          	li	a4,4
10001384:	00074703          	lbu	a4,0(a4)
10001388:	00e7e733          	or	a4,a5,a4
1000138c:	00e02623          	sw	a4,12(zero) # c <tmp_la1_data>
10001390:	f00037b7          	lui	a5,0xf0003
10001394:	03878793          	add	a5,a5,56 # f0003038 <_erodata+0xe0001a38>
10001398:	00c02703          	lw	a4,12(zero) # c <tmp_la1_data>
1000139c:	00e7a023          	sw	a4,0(a5)
100013a0:	a5dff0ef          	jal	10000dfc <rom_loader>
100013a4:	00400793          	li	a5,4
100013a8:	00078323          	sb	zero,6(a5)
100013ac:	00c02703          	lw	a4,12(zero) # c <tmp_la1_data>
100013b0:	f00007b7          	lui	a5,0xf0000
100013b4:	fff78793          	add	a5,a5,-1 # efffffff <_erodata+0xdfffe9ff>
100013b8:	00f77733          	and	a4,a4,a5
100013bc:	00400793          	li	a5,4
100013c0:	0067c783          	lbu	a5,6(a5)
100013c4:	01c79793          	sll	a5,a5,0x1c
100013c8:	00f76733          	or	a4,a4,a5
100013cc:	00e02623          	sw	a4,12(zero) # c <tmp_la1_data>
100013d0:	f00037b7          	lui	a5,0xf0003
100013d4:	03878793          	add	a5,a5,56 # f0003038 <_erodata+0xe0001a38>
100013d8:	00c02703          	lw	a4,12(zero) # c <tmp_la1_data>
100013dc:	00e7a023          	sw	a4,0(a5)
100013e0:	f00037b7          	lui	a5,0xf0003
100013e4:	80878793          	add	a5,a5,-2040 # f0002808 <_erodata+0xe0001208>
100013e8:	0007a023          	sw	zero,0(a5)
100013ec:	f00037b7          	lui	a5,0xf0003
100013f0:	80c78793          	add	a5,a5,-2036 # f000280c <_erodata+0xe000120c>
100013f4:	00100713          	li	a4,1
100013f8:	00e7a023          	sw	a4,0(a5)
100013fc:	86dff0ef          	jal	10000c68 <print_gpio_values_header>
10001400:	f00037b7          	lui	a5,0xf0003
10001404:	81478793          	add	a5,a5,-2028 # f0002814 <_erodata+0xe0001214>
10001408:	00100713          	li	a4,1
1000140c:	00e7a023          	sw	a4,0(a5)
10001410:	f00037b7          	lui	a5,0xf0003
10001414:	81478793          	add	a5,a5,-2028 # f0002814 <_erodata+0xe0001214>
10001418:	0007a023          	sw	zero,0(a5)
1000141c:	909ff0ef          	jal	10000d24 <print_gpio_for_serial_plot>
10001420:	fe1ff06f          	j	10001400 <main+0x4b4>
	...

Disassembly of section .rodata:

10001500 <_frodata>:
10001500:	3130                	.insn	2, 0x3130
10001502:	3332                	.insn	2, 0x3332
10001504:	3534                	.insn	2, 0x3534
10001506:	3736                	.insn	2, 0x3736
10001508:	3938                	.insn	2, 0x3938
1000150a:	6261                	.insn	2, 0x6261
1000150c:	66656463          	bltu	a0,t1,10001b74 <_erodata+0x574>
10001510:	0000                	.insn	2, 0x
10001512:	0000                	.insn	2, 0x
10001514:	5245564f          	.insn	4, 0x5245564f
10001518:	0000                	.insn	2, 0x
	...

1000151c <hack_program>:
1000151c:	6002                	.insn	2, 0x6002
1000151e:	ee88                	.insn	2, 0xee88
10001520:	ea88                	.insn	2, 0xea88
10001522:	0000                	.insn	2, 0x
10001524:	0000ea87          	.insn	4, 0xea87
10001528:	0000005b          	.insn	4, 0x005b
1000152c:	205d                	.insn	2, 0x205d
1000152e:	0000                	.insn	2, 0x
10001530:	000a                	.insn	2, 0x000a
10001532:	0000                	.insn	2, 0x
10001534:	0024                	.insn	2, 0x0024
10001536:	0000                	.insn	2, 0x
10001538:	0031                	.insn	2, 0x0031
1000153a:	0000                	.insn	2, 0x
1000153c:	0030                	.insn	2, 0x0030
1000153e:	0000                	.insn	2, 0x
10001540:	0020                	.insn	2, 0x0020
10001542:	0000                	.insn	2, 0x
10001544:	0000003b          	.insn	4, 0x003b
	...

Disassembly of section .riscv.attributes:

00000000 <.riscv.attributes>:
   0:	2841                	.insn	2, 0x2841
   2:	0000                	.insn	2, 0x
   4:	7200                	.insn	2, 0x7200
   6:	7369                	.insn	2, 0x7369
   8:	01007663          	bgeu	zero,a6,14 <_ebss+0x4>
   c:	001e                	.insn	2, 0x001e
   e:	0000                	.insn	2, 0x
  10:	1004                	.insn	2, 0x1004
  12:	7205                	.insn	2, 0x7205
  14:	3376                	.insn	2, 0x3376
  16:	6932                	.insn	2, 0x6932
  18:	7032                	.insn	2, 0x7032
  1a:	5f31                	.insn	2, 0x5f31
  1c:	697a                	.insn	2, 0x697a
  1e:	32727363          	bgeu	tp,t2,344 <_ebss+0x334>
  22:	3070                	.insn	2, 0x3070
  24:	0800                	.insn	2, 0x0800
  26:	0a01                	.insn	2, 0x0a01
  28:	Address 0x28 is out of bounds.


Disassembly of section .comment:

00000000 <.comment>:
   0:	3a434347          	.insn	4, 0x3a434347
   4:	2820                	.insn	2, 0x2820
   6:	2029                	.insn	2, 0x2029
   8:	3331                	.insn	2, 0x3331
   a:	322e                	.insn	2, 0x322e
   c:	302e                	.insn	2, 0x302e
	...
